target datalayout = "e-m:e-p270:32:32-p271:32:32-p272:64:64-i64:64-i128:128-f80:128-n8:16:32:64-S128"
target triple = "x86_64-pc-linux-gnu"

%struct.t_mat = type { i32, i32, ptr, i8, float, float, float, ptr, ptr }

@stderr = external global ptr, align 8
@.str.4 = private unnamed_addr constant [54 x i8] c"t_mat structures not identical in size dst %d src %d\0A\00", align 1

; Function Attrs: mustprogress nounwind uwtable
define void @_Z10copy_t_matP5t_matS0_(ptr noundef %0, ptr noundef %1) #2 {
  %3 = alloca ptr, align 8
  %4 = alloca ptr, align 8
  %5 = alloca i32, align 4
  %6 = alloca i32, align 4
  store ptr %0, ptr %3, align 8
  store ptr %1, ptr %4, align 8
  %7 = load ptr, ptr %3, align 8
  %8 = getelementptr inbounds %struct.t_mat, ptr %7, i32 0, i32 1
  %9 = load i32, ptr %8, align 4
  %10 = load ptr, ptr %4, align 8
  %11 = getelementptr inbounds %struct.t_mat, ptr %10, i32 0, i32 1
  %12 = load i32, ptr %11, align 4
  %13 = icmp ne i32 %9, %12
  br i1 %13, label %14, label %23

14:                                               ; preds = %2
  %15 = load ptr, ptr @stderr, align 8
  %16 = load ptr, ptr %3, align 8
  %17 = getelementptr inbounds %struct.t_mat, ptr %16, i32 0, i32 1
  %18 = load i32, ptr %17, align 4
  %19 = load ptr, ptr %4, align 8
  %20 = getelementptr inbounds %struct.t_mat, ptr %19, i32 0, i32 1
  %21 = load i32, ptr %20, align 4
  %22 = call i32 (ptr, ptr, ...) @fprintf(ptr noundef %15, ptr noundef @.str.4, i32 noundef %18, i32 noundef %21) #8
  br label %107

23:                                               ; preds = %2
  %24 = load ptr, ptr %4, align 8
  %25 = getelementptr inbounds %struct.t_mat, ptr %24, i32 0, i32 5
  %26 = load float, ptr %25, align 8
  %27 = load ptr, ptr %3, align 8
  %28 = getelementptr inbounds %struct.t_mat, ptr %27, i32 0, i32 5
  store float %26, ptr %28, align 8
  %29 = load ptr, ptr %4, align 8
  %30 = getelementptr inbounds %struct.t_mat, ptr %29, i32 0, i32 4
  %31 = load float, ptr %30, align 4
  %32 = load ptr, ptr %3, align 8
  %33 = getelementptr inbounds %struct.t_mat, ptr %32, i32 0, i32 4
  store float %31, ptr %33, align 4
  %34 = load ptr, ptr %4, align 8
  %35 = getelementptr inbounds %struct.t_mat, ptr %34, i32 0, i32 6
  %36 = load float, ptr %35, align 4
  %37 = load ptr, ptr %3, align 8
  %38 = getelementptr inbounds %struct.t_mat, ptr %37, i32 0, i32 6
  store float %36, ptr %38, align 4
  store i32 0, ptr %5, align 4
  br label %39

39:                                               ; preds = %104, %23
  %40 = load i32, ptr %5, align 4
  %41 = load ptr, ptr %4, align 8
  %42 = getelementptr inbounds %struct.t_mat, ptr %41, i32 0, i32 1
  %43 = load i32, ptr %42, align 4
  %44 = icmp slt i32 %40, %43
  br i1 %44, label %45, label %107

45:                                               ; preds = %39
  store i32 0, ptr %6, align 4
  br label %46

46:                                               ; preds = %74, %45
  %47 = load i32, ptr %6, align 4
  %48 = load ptr, ptr %4, align 8
  %49 = getelementptr inbounds %struct.t_mat, ptr %48, i32 0, i32 1
  %50 = load i32, ptr %49, align 4
  %51 = icmp slt i32 %47, %50
  br i1 %51, label %52, label %77

52:                                               ; preds = %46
  %53 = load ptr, ptr %4, align 8
  %54 = getelementptr inbounds %struct.t_mat, ptr %53, i32 0, i32 8
  %55 = load ptr, ptr %54, align 8
  %56 = load i32, ptr %5, align 4
  %57 = sext i32 %56 to i64
  %58 = getelementptr inbounds ptr, ptr %55, i64 %57
  %59 = load ptr, ptr %58, align 8
  %60 = load i32, ptr %6, align 4
  %61 = sext i32 %60 to i64
  %62 = getelementptr inbounds float, ptr %59, i64 %61
  %63 = load float, ptr %62, align 4
  %64 = load ptr, ptr %3, align 8
  %65 = getelementptr inbounds %struct.t_mat, ptr %64, i32 0, i32 8
  %66 = load ptr, ptr %65, align 8
  %67 = load i32, ptr %5, align 4
  %68 = sext i32 %67 to i64
  %69 = getelementptr inbounds ptr, ptr %66, i64 %68
  %70 = load ptr, ptr %69, align 8
  %71 = load i32, ptr %6, align 4
  %72 = sext i32 %71 to i64
  %73 = getelementptr inbounds float, ptr %70, i64 %72
  store float %63, ptr %73, align 4
  br label %74

74:                                               ; preds = %52
  %75 = load i32, ptr %6, align 4
  %76 = add nsw i32 %75, 1
  store i32 %76, ptr %6, align 4
  br label %46, !llvm.loop !7

77:                                               ; preds = %46
  %78 = load ptr, ptr %4, align 8
  %79 = getelementptr inbounds %struct.t_mat, ptr %78, i32 0, i32 7
  %80 = load ptr, ptr %79, align 8
  %81 = load i32, ptr %5, align 4
  %82 = sext i32 %81 to i64
  %83 = getelementptr inbounds float, ptr %80, i64 %82
  %84 = load float, ptr %83, align 4
  %85 = load ptr, ptr %3, align 8
  %86 = getelementptr inbounds %struct.t_mat, ptr %85, i32 0, i32 7
  %87 = load ptr, ptr %86, align 8
  %88 = load i32, ptr %5, align 4
  %89 = sext i32 %88 to i64
  %90 = getelementptr inbounds float, ptr %87, i64 %89
  store float %84, ptr %90, align 4
  %91 = load ptr, ptr %4, align 8
  %92 = getelementptr inbounds %struct.t_mat, ptr %91, i32 0, i32 2
  %93 = load ptr, ptr %92, align 8
  %94 = load i32, ptr %5, align 4
  %95 = sext i32 %94 to i64
  %96 = getelementptr inbounds i32, ptr %93, i64 %95
  %97 = load i32, ptr %96, align 4
  %98 = load ptr, ptr %3, align 8
  %99 = getelementptr inbounds %struct.t_mat, ptr %98, i32 0, i32 2
  %100 = load ptr, ptr %99, align 8
  %101 = load i32, ptr %5, align 4
  %102 = sext i32 %101 to i64
  %103 = getelementptr inbounds i32, ptr %100, i64 %102
  store i32 %97, ptr %103, align 4
  br label %104

104:                                              ; preds = %77
  %105 = load i32, ptr %5, align 4
  %106 = add nsw i32 %105, 1
  store i32 %106, ptr %5, align 4
  br label %39, !llvm.loop !8

107:                                              ; preds = %39, %14
  ret void
}