; Function Attrs: mustprogress nofree nounwind uwtable
define void @_Z10copy_t_matP5t_matS0_(ptr nocapture noundef %0, ptr nocapture noundef readonly %1) local_unnamed_addr #3 {
  %3 = getelementptr inbounds i8, ptr %0, i64 4
  %4 = load i32, ptr %3, align 4
  %5 = getelementptr inbounds i8, ptr %1, i64 4
  %6 = load i32, ptr %5, align 4
  %.not = icmp eq i32 %4, %6
  br i1 %.not, label %10, label %7

7:                                                ; preds = %2
  %8 = load ptr, ptr @stderr, align 8
  %9 = tail call i32 (ptr, ptr, ...) @fprintf(ptr noundef %8, ptr noundef nonnull @.str.4, i32 noundef %4, i32 noundef %6) #15
  br label %.loopexit

10:                                               ; preds = %2
  %11 = getelementptr inbounds i8, ptr %1, i64 24
  %12 = load float, ptr %11, align 8
  %13 = getelementptr inbounds i8, ptr %0, i64 24
  store float %12, ptr %13, align 8
  %14 = getelementptr inbounds i8, ptr %1, i64 20
  %15 = load float, ptr %14, align 4
  %16 = getelementptr inbounds i8, ptr %0, i64 20
  store float %15, ptr %16, align 4
  %17 = getelementptr inbounds i8, ptr %1, i64 28
  %18 = load float, ptr %17, align 4
  %19 = getelementptr inbounds i8, ptr %0, i64 28
  store float %18, ptr %19, align 4
  %20 = load i32, ptr %5, align 4
  %21 = icmp sgt i32 %20, 0
  br i1 %21, label %.preheader.lr.ph, label %.loopexit

.preheader.lr.ph:                                 ; preds = %10
  %22 = getelementptr inbounds i8, ptr %1, i64 40
  %23 = getelementptr inbounds i8, ptr %0, i64 40
  %24 = getelementptr inbounds i8, ptr %1, i64 32
  %25 = getelementptr inbounds i8, ptr %0, i64 32
  %26 = getelementptr inbounds i8, ptr %1, i64 8
  %27 = getelementptr inbounds i8, ptr %0, i64 8
  br label %.preheader

.preheader:                                       ; preds = %.preheader.lr.ph, %._crit_edge
  %28 = phi i32 [ %20, %.preheader.lr.ph ], [ %52, %._crit_edge ]
  %indvars.iv35 = phi i64 [ 0, %.preheader.lr.ph ], [ %indvars.iv.next36, %._crit_edge ]
  %29 = icmp sgt i32 %28, 0
  br i1 %29, label %.lr.ph, label %._crit_edge

.lr.ph:                                           ; preds = %.preheader, %.lr.ph
  %indvars.iv = phi i64 [ %indvars.iv.next, %.lr.ph ], [ 0, %.preheader ]
  %30 = load ptr, ptr %22, align 8
  %31 = getelementptr inbounds ptr, ptr %30, i64 %indvars.iv35
  %32 = load ptr, ptr %31, align 8
  %33 = getelementptr inbounds float, ptr %32, i64 %indvars.iv
  %34 = load float, ptr %33, align 4
  %35 = load ptr, ptr %23, align 8
  %36 = getelementptr inbounds ptr, ptr %35, i64 %indvars.iv35
  %37 = load ptr, ptr %36, align 8
  %38 = getelementptr inbounds float, ptr %37, i64 %indvars.iv
  store float %34, ptr %38, align 4
  %indvars.iv.next = add nuw nsw i64 %indvars.iv, 1
  %39 = load i32, ptr %5, align 4
  %40 = sext i32 %39 to i64
  %41 = icmp slt i64 %indvars.iv.next, %40
  br i1 %41, label %.lr.ph, label %._crit_edge, !llvm.loop !7

._crit_edge:                                      ; preds = %.lr.ph, %.preheader
  %42 = load ptr, ptr %24, align 8
  %43 = getelementptr inbounds float, ptr %42, i64 %indvars.iv35
  %44 = load float, ptr %43, align 4
  %45 = load ptr, ptr %25, align 8
  %46 = getelementptr inbounds float, ptr %45, i64 %indvars.iv35
  store float %44, ptr %46, align 4
  %47 = load ptr, ptr %26, align 8
  %48 = getelementptr inbounds i32, ptr %47, i64 %indvars.iv35
  %49 = load i32, ptr %48, align 4
  %50 = load ptr, ptr %27, align 8
  %51 = getelementptr inbounds i32, ptr %50, i64 %indvars.iv35
  store i32 %49, ptr %51, align 4
  %indvars.iv.next36 = add nuw nsw i64 %indvars.iv35, 1
  %52 = load i32, ptr %5, align 4
  %53 = sext i32 %52 to i64
  %54 = icmp slt i64 %indvars.iv.next36, %53
  br i1 %54, label %.preheader, label %.loopexit, !llvm.loop !8

.loopexit:                                        ; preds = %._crit_edge, %10, %7
  ret void
}